; Function Attrs: mustprogress nounwind uwtable
define void @_ZN21TrafficTreeHeaderViewD2Ev(ptr noundef nonnull align 8 dereferenceable(80) %0) unnamed_addr #5 align 2 {
  store ptr getelementptr inbounds ({ [102 x ptr], [10 x ptr] }, ptr @_ZTV21TrafficTreeHeaderView, i64 0, i32 0, i64 2), ptr %0, align 8
  %2 = getelementptr inbounds i8, ptr %0, i64 16
  store ptr getelementptr inbounds ({ [102 x ptr], [10 x ptr] }, ptr @_ZTV21TrafficTreeHeaderView, i64 0, i32 1, i64 2), ptr %2, align 8
  %3 = getelementptr inbounds i8, ptr %0, i64 56
  %4 = load ptr, ptr %3, align 8
  %.not.i.i.i = icmp eq ptr %4, null
  br i1 %.not.i.i.i, label %_ZN7QStringD2Ev.exit, label %_ZN17QArrayDataPointerIDsE5derefEv.exit.i.i

_ZN17QArrayDataPointerIDsE5derefEv.exit.i.i:      ; preds = %1
  %5 = atomicrmw sub ptr %4, i32 1 seq_cst, align 4
  %.not.i.i = icmp eq i32 %5, 1
  br i1 %.not.i.i, label %6, label %_ZN7QStringD2Ev.exit

6:                                                ; preds = %_ZN17QArrayDataPointerIDsE5derefEv.exit.i.i
  %7 = load ptr, ptr %3, align 8
  tail call void @_ZN10QArrayData10deallocateEPS_xx(ptr noundef %7, i64 noundef 2, i64 noundef 8) #24
  br label %_ZN7QStringD2Ev.exit

_ZN7QStringD2Ev.exit:                             ; preds = %1, %_ZN17QArrayDataPointerIDsE5derefEv.exit.i.i, %6
  tail call void @_ZN11QHeaderViewD2Ev(ptr noundef nonnull align 8 dereferenceable(40) %0) #24
  ret void
}